; ModuleID = '22/356.c'
source_filename = "22/356.c"
target datalayout = "e-m:e-p270:32:32-p271:32:32-p272:64:64-i64:64-f80:128-n8:16:32:64-S128"
target triple = "x86_64-pc-linux-gnu"

@.str = private unnamed_addr constant [3 x i8] c"No\00", align 1
@.str.1 = private unnamed_addr constant [3 x i8] c"%d\00", align 1

; Function Attrs: noinline nounwind uwtable
define dso_local void @main() #0 {
  %1 = alloca i32, align 4
  %2 = alloca i32, align 4
  %3 = alloca i32, align 4
  %4 = alloca i32, align 4
  %5 = alloca i32, align 4
  %6 = alloca i32, align 4
  %7 = alloca [100 x i32], align 16
  %8 = alloca [1000 x i8], align 16
  %9 = alloca i8, align 1
  store i32 1, i32* %6, align 4
  %10 = bitcast [100 x i32]* %7 to i8*
  call void @llvm.memset.p0i8.i64(i8* align 16 %10, i8 0, i64 400, i1 false)
  %11 = getelementptr inbounds [1000 x i8], [1000 x i8]* %8, i64 0, i64 0
  %12 = call i32 (i8*, ...) bitcast (i32 (...)* @gets to i32 (i8*, ...)*)(i8* %11)
  store i32 0, i32* %1, align 4
  br label %13

13:                                               ; preds = %31, %0
  %14 = load i32, i32* %1, align 4
  %15 = sext i32 %14 to i64
  %16 = getelementptr inbounds [1000 x i8], [1000 x i8]* %8, i64 0, i64 %15
  %17 = load i8, i8* %16, align 1
  %18 = sext i8 %17 to i32
  %19 = icmp ne i32 %18, 0
  br i1 %19, label %20, label %34

20:                                               ; preds = %13
  %21 = load i32, i32* %1, align 4
  %22 = sext i32 %21 to i64
  %23 = getelementptr inbounds [1000 x i8], [1000 x i8]* %8, i64 0, i64 %22
  %24 = load i8, i8* %23, align 1
  %25 = sext i8 %24 to i32
  %26 = icmp eq i32 %25, 44
  br i1 %26, label %27, label %30

27:                                               ; preds = %20
  %28 = load i32, i32* %6, align 4
  %29 = add nsw i32 %28, 1
  store i32 %29, i32* %6, align 4
  br label %30

30:                                               ; preds = %27, %20
  br label %31

31:                                               ; preds = %30
  %32 = load i32, i32* %1, align 4
  %33 = add nsw i32 %32, 1
  store i32 %33, i32* %1, align 4
  br label %13

34:                                               ; preds = %13
  %35 = load i32, i32* %6, align 4
  %36 = icmp eq i32 %35, 1
  br i1 %36, label %37, label %39

37:                                               ; preds = %34
  %38 = call i32 (i8*, ...) @printf(i8* getelementptr inbounds ([3 x i8], [3 x i8]* @.str, i64 0, i64 0))
  br label %167

39:                                               ; preds = %34
  store i32 0, i32* %1, align 4
  store i32 1, i32* %3, align 4
  br label %40

40:                                               ; preds = %86, %39
  %41 = load i32, i32* %3, align 4
  %42 = load i32, i32* %6, align 4
  %43 = icmp sle i32 %41, %42
  br i1 %43, label %44, label %89

44:                                               ; preds = %40
  %45 = load i32, i32* %1, align 4
  store i32 %45, i32* %2, align 4
  br label %46

46:                                               ; preds = %78, %44
  %47 = load i32, i32* %2, align 4
  %48 = sext i32 %47 to i64
  %49 = getelementptr inbounds [1000 x i8], [1000 x i8]* %8, i64 0, i64 %48
  %50 = load i8, i8* %49, align 1
  %51 = sext i8 %50 to i32
  %52 = icmp ne i32 %51, 44
  br i1 %52, label %53, label %60

53:                                               ; preds = %46
  %54 = load i32, i32* %2, align 4
  %55 = sext i32 %54 to i64
  %56 = getelementptr inbounds [1000 x i8], [1000 x i8]* %8, i64 0, i64 %55
  %57 = load i8, i8* %56, align 1
  %58 = sext i8 %57 to i32
  %59 = icmp ne i32 %58, 0
  br label %60

60:                                               ; preds = %53, %46
  %61 = phi i1 [ false, %46 ], [ %59, %53 ]
  br i1 %61, label %62, label %83

62:                                               ; preds = %60
  %63 = load i32, i32* %3, align 4
  %64 = sext i32 %63 to i64
  %65 = getelementptr inbounds [100 x i32], [100 x i32]* %7, i64 0, i64 %64
  %66 = load i32, i32* %65, align 4
  %67 = mul nsw i32 %66, 10
  %68 = load i32, i32* %2, align 4
  %69 = sext i32 %68 to i64
  %70 = getelementptr inbounds [1000 x i8], [1000 x i8]* %8, i64 0, i64 %69
  %71 = load i8, i8* %70, align 1
  %72 = sext i8 %71 to i32
  %73 = add nsw i32 %67, %72
  %74 = sub nsw i32 %73, 48
  %75 = load i32, i32* %3, align 4
  %76 = sext i32 %75 to i64
  %77 = getelementptr inbounds [100 x i32], [100 x i32]* %7, i64 0, i64 %76
  store i32 %74, i32* %77, align 4
  br label %78

78:                                               ; preds = %62
  %79 = load i32, i32* %2, align 4
  %80 = add nsw i32 %79, 1
  store i32 %80, i32* %2, align 4
  %81 = load i32, i32* %1, align 4
  %82 = add nsw i32 %81, 1
  store i32 %82, i32* %1, align 4
  br label %46

83:                                               ; preds = %60
  %84 = load i32, i32* %1, align 4
  %85 = add nsw i32 %84, 1
  store i32 %85, i32* %1, align 4
  br label %86

86:                                               ; preds = %83
  %87 = load i32, i32* %3, align 4
  %88 = add nsw i32 %87, 1
  store i32 %88, i32* %3, align 4
  br label %40

89:                                               ; preds = %40
  store i32 1, i32* %1, align 4
  br label %90

90:                                               ; preds = %135, %89
  %91 = load i32, i32* %1, align 4
  %92 = load i32, i32* %6, align 4
  %93 = icmp slt i32 %91, %92
  br i1 %93, label %94, label %138

94:                                               ; preds = %90
  store i32 1, i32* %2, align 4
  br label %95

95:                                               ; preds = %131, %94
  %96 = load i32, i32* %2, align 4
  %97 = load i32, i32* %6, align 4
  %98 = load i32, i32* %1, align 4
  %99 = sub nsw i32 %97, %98
  %100 = icmp sle i32 %96, %99
  br i1 %100, label %101, label %134

101:                                              ; preds = %95
  %102 = load i32, i32* %2, align 4
  %103 = add nsw i32 %102, 1
  %104 = sext i32 %103 to i64
  %105 = getelementptr inbounds [100 x i32], [100 x i32]* %7, i64 0, i64 %104
  %106 = load i32, i32* %105, align 4
  %107 = load i32, i32* %2, align 4
  %108 = sext i32 %107 to i64
  %109 = getelementptr inbounds [100 x i32], [100 x i32]* %7, i64 0, i64 %108
  %110 = load i32, i32* %109, align 4
  %111 = icmp sgt i32 %106, %110
  br i1 %111, label %112, label %130

112:                                              ; preds = %101
  %113 = load i32, i32* %2, align 4
  %114 = sext i32 %113 to i64
  %115 = getelementptr inbounds [100 x i32], [100 x i32]* %7, i64 0, i64 %114
  %116 = load i32, i32* %115, align 4
  store i32 %116, i32* %5, align 4
  %117 = load i32, i32* %2, align 4
  %118 = add nsw i32 %117, 1
  %119 = sext i32 %118 to i64
  %120 = getelementptr inbounds [100 x i32], [100 x i32]* %7, i64 0, i64 %119
  %121 = load i32, i32* %120, align 4
  %122 = load i32, i32* %2, align 4
  %123 = sext i32 %122 to i64
  %124 = getelementptr inbounds [100 x i32], [100 x i32]* %7, i64 0, i64 %123
  store i32 %121, i32* %124, align 4
  %125 = load i32, i32* %5, align 4
  %126 = load i32, i32* %2, align 4
  %127 = add nsw i32 %126, 1
  %128 = sext i32 %127 to i64
  %129 = getelementptr inbounds [100 x i32], [100 x i32]* %7, i64 0, i64 %128
  store i32 %125, i32* %129, align 4
  br label %130

130:                                              ; preds = %112, %101
  br label %131

131:                                              ; preds = %130
  %132 = load i32, i32* %2, align 4
  %133 = add nsw i32 %132, 1
  store i32 %133, i32* %2, align 4
  br label %95

134:                                              ; preds = %95
  br label %135

135:                                              ; preds = %134
  %136 = load i32, i32* %1, align 4
  %137 = add nsw i32 %136, 1
  store i32 %137, i32* %1, align 4
  br label %90

138:                                              ; preds = %90
  store i32 1, i32* %1, align 4
  br label %139

139:                                              ; preds = %162, %138
  %140 = load i32, i32* %1, align 4
  %141 = load i32, i32* %6, align 4
  %142 = icmp slt i32 %140, %141
  br i1 %142, label %143, label %165

143:                                              ; preds = %139
  %144 = load i32, i32* %1, align 4
  %145 = sext i32 %144 to i64
  %146 = getelementptr inbounds [100 x i32], [100 x i32]* %7, i64 0, i64 %145
  %147 = load i32, i32* %146, align 4
  %148 = load i32, i32* %1, align 4
  %149 = add nsw i32 %148, 1
  %150 = sext i32 %149 to i64
  %151 = getelementptr inbounds [100 x i32], [100 x i32]* %7, i64 0, i64 %150
  %152 = load i32, i32* %151, align 4
  %153 = icmp ne i32 %147, %152
  br i1 %153, label %154, label %161

154:                                              ; preds = %143
  %155 = load i32, i32* %1, align 4
  %156 = add nsw i32 %155, 1
  %157 = sext i32 %156 to i64
  %158 = getelementptr inbounds [100 x i32], [100 x i32]* %7, i64 0, i64 %157
  %159 = load i32, i32* %158, align 4
  %160 = call i32 (i8*, ...) @printf(i8* getelementptr inbounds ([3 x i8], [3 x i8]* @.str.1, i64 0, i64 0), i32 %159)
  br label %167

161:                                              ; preds = %143
  br label %162

162:                                              ; preds = %161
  %163 = load i32, i32* %1, align 4
  %164 = add nsw i32 %163, 1
  store i32 %164, i32* %1, align 4
  br label %139

165:                                              ; preds = %139
  %166 = call i32 (i8*, ...) @printf(i8* getelementptr inbounds ([3 x i8], [3 x i8]* @.str, i64 0, i64 0))
  br label %167

167:                                              ; preds = %165, %154, %37
  ret void
}

; Function Attrs: argmemonly nounwind willreturn
declare void @llvm.memset.p0i8.i64(i8* nocapture writeonly, i8, i64, i1 immarg) #1

declare dso_local i32 @gets(...) #2

declare dso_local i32 @printf(i8*, ...) #2


!llvm.module.flags = !{!0}
!llvm.ident = !{!1}

!0 = !{i32 1, !"wchar_size", i32 4}
!1 = !{!"clang version 10.0.0-4ubuntu1 "}
