; ModuleID = 'source-C-CXX/21/356.c'
source_filename = "source-C-CXX/21/356.c"
target datalayout = "e-m:e-p270:32:32-p271:32:32-p272:64:64-i64:64-f80:128-n8:16:32:64-S128"
target triple = "x86_64-pc-linux-gnu"

@.str = private unnamed_addr constant [3 x i8] c"No\00", align 1
@.str.1 = private unnamed_addr constant [3 x i8] c"%d\00", align 1

; Function Attrs: nounwind sspstrong uwtable
define dso_local void @main() local_unnamed_addr #0 {
  %1 = alloca [100 x i32], align 16
  %2 = alloca [1000 x i8], align 16
  %3 = bitcast [100 x i32]* %1 to i8*
  call void @llvm.lifetime.start.p0i8(i64 400, i8* nonnull %3) #6
  call void @llvm.memset.p0i8.i64(i8* noundef nonnull align 16 dereferenceable(400) %3, i8 0, i64 400, i1 false)
  %4 = getelementptr inbounds [1000 x i8], [1000 x i8]* %2, i64 0, i64 0
  call void @llvm.lifetime.start.p0i8(i64 1000, i8* nonnull %4) #6
  %5 = call i32 (i8*, ...) bitcast (i32 (...)* @gets to i32 (i8*, ...)*)(i8* nonnull %4) #6
  br label %6

6:                                                ; preds = %13, %0
  %7 = phi i64 [ %15, %13 ], [ 0, %0 ]
  %8 = phi i32 [ %14, %13 ], [ 1, %0 ]
  %9 = getelementptr inbounds [1000 x i8], [1000 x i8]* %2, i64 0, i64 %7
  %10 = load i8, i8* %9, align 1, !tbaa !5
  switch i8 %10, label %13 [
    i8 0, label %16
    i8 44, label %11
  ]

11:                                               ; preds = %6
  %12 = add nsw i32 %8, 1
  br label %13

13:                                               ; preds = %6, %11
  %14 = phi i32 [ %12, %11 ], [ %8, %6 ]
  %15 = add nuw i64 %7, 1
  br label %6, !llvm.loop !8

16:                                               ; preds = %6
  %17 = icmp eq i32 %8, 1
  br i1 %17, label %23, label %18

18:                                               ; preds = %16
  %19 = icmp slt i32 %8, 1
  br i1 %19, label %64, label %20

20:                                               ; preds = %18
  %21 = add nuw i32 %8, 1
  %22 = zext i32 %21 to i64
  br label %25

23:                                               ; preds = %16
  %24 = call i32 (i8*, ...) @printf(i8* nonnull dereferenceable(1) getelementptr inbounds ([3 x i8], [3 x i8]* @.str, i64 0, i64 0))
  br label %112

25:                                               ; preds = %20, %47
  %26 = phi i64 [ 1, %20 ], [ %49, %47 ]
  %27 = phi i32 [ 0, %20 ], [ %48, %47 ]
  %28 = getelementptr inbounds [100 x i32], [100 x i32]* %1, i64 0, i64 %26
  %29 = sext i32 %27 to i64
  br label %34

30:                                               ; preds = %47
  %31 = icmp sgt i32 %8, 1
  br i1 %31, label %32, label %64

32:                                               ; preds = %30
  %33 = getelementptr inbounds [100 x i32], [100 x i32]* %1, i64 0, i64 1
  br label %51

34:                                               ; preds = %25, %39
  %35 = phi i64 [ %29, %25 ], [ %45, %39 ]
  %36 = phi i32 [ %27, %25 ], [ %46, %39 ]
  %37 = getelementptr inbounds [1000 x i8], [1000 x i8]* %2, i64 0, i64 %35
  %38 = load i8, i8* %37, align 1, !tbaa !5
  switch i8 %38, label %39 [
    i8 44, label %47
    i8 0, label %47
  ]

39:                                               ; preds = %34
  %40 = sext i8 %38 to i32
  %41 = load i32, i32* %28, align 4, !tbaa !10
  %42 = mul nsw i32 %41, 10
  %43 = add nsw i32 %40, -48
  %44 = add i32 %43, %42
  store i32 %44, i32* %28, align 4, !tbaa !10
  %45 = add i64 %35, 1
  %46 = add nsw i32 %36, 1
  br label %34, !llvm.loop !12

47:                                               ; preds = %34, %34
  %48 = add nsw i32 %36, 1
  %49 = add nuw nsw i64 %26, 1
  %50 = icmp eq i64 %49, %22
  br i1 %50, label %30, label %25, !llvm.loop !13

51:                                               ; preds = %32, %94
  %52 = phi i32 [ 0, %32 ], [ %97, %94 ]
  %53 = phi i32 [ 1, %32 ], [ %95, %94 ]
  %54 = sub i32 %8, %52
  %55 = zext i32 %54 to i64
  %56 = add nsw i64 %55, -1
  %57 = icmp sgt i32 %8, %53
  br i1 %57, label %58, label %94

58:                                               ; preds = %51
  %59 = load i32, i32* %33, align 4, !tbaa !10
  %60 = and i64 %56, 1
  %61 = icmp eq i32 %54, 2
  br i1 %61, label %83, label %62

62:                                               ; preds = %58
  %63 = and i64 %56, -2
  br label %67

64:                                               ; preds = %94, %18, %30
  %65 = call i32 @llvm.smax.i32(i32 %8, i32 1)
  %66 = zext i32 %65 to i64
  br label %98

67:                                               ; preds = %115, %62
  %68 = phi i32 [ %59, %62 ], [ %116, %115 ]
  %69 = phi i64 [ 1, %62 ], [ %79, %115 ]
  %70 = phi i64 [ %63, %62 ], [ %117, %115 ]
  %71 = add nuw nsw i64 %69, 1
  %72 = getelementptr inbounds [100 x i32], [100 x i32]* %1, i64 0, i64 %71
  %73 = load i32, i32* %72, align 4, !tbaa !10
  %74 = icmp sgt i32 %73, %68
  br i1 %74, label %75, label %77

75:                                               ; preds = %67
  %76 = getelementptr inbounds [100 x i32], [100 x i32]* %1, i64 0, i64 %69
  store i32 %73, i32* %76, align 4, !tbaa !10
  store i32 %68, i32* %72, align 4, !tbaa !10
  br label %77

77:                                               ; preds = %67, %75
  %78 = phi i32 [ %73, %67 ], [ %68, %75 ]
  %79 = add nuw nsw i64 %69, 2
  %80 = getelementptr inbounds [100 x i32], [100 x i32]* %1, i64 0, i64 %79
  %81 = load i32, i32* %80, align 4, !tbaa !10
  %82 = icmp sgt i32 %81, %78
  br i1 %82, label %113, label %115

83:                                               ; preds = %115, %58
  %84 = phi i32 [ %59, %58 ], [ %116, %115 ]
  %85 = phi i64 [ 1, %58 ], [ %79, %115 ]
  %86 = icmp eq i64 %60, 0
  br i1 %86, label %94, label %87

87:                                               ; preds = %83
  %88 = add nuw nsw i64 %85, 1
  %89 = getelementptr inbounds [100 x i32], [100 x i32]* %1, i64 0, i64 %88
  %90 = load i32, i32* %89, align 4, !tbaa !10
  %91 = icmp sgt i32 %90, %84
  br i1 %91, label %92, label %94

92:                                               ; preds = %87
  %93 = getelementptr inbounds [100 x i32], [100 x i32]* %1, i64 0, i64 %85
  store i32 %90, i32* %93, align 4, !tbaa !10
  store i32 %84, i32* %89, align 4, !tbaa !10
  br label %94

94:                                               ; preds = %83, %87, %92, %51
  %95 = add nuw nsw i32 %53, 1
  %96 = icmp eq i32 %95, %8
  %97 = add i32 %52, 1
  br i1 %96, label %64, label %51, !llvm.loop !14

98:                                               ; preds = %64, %101
  %99 = phi i64 [ 1, %64 ], [ %104, %101 ]
  %100 = icmp eq i64 %99, %66
  br i1 %100, label %110, label %101

101:                                              ; preds = %98
  %102 = getelementptr inbounds [100 x i32], [100 x i32]* %1, i64 0, i64 %99
  %103 = load i32, i32* %102, align 4, !tbaa !10
  %104 = add nuw nsw i64 %99, 1
  %105 = getelementptr inbounds [100 x i32], [100 x i32]* %1, i64 0, i64 %104
  %106 = load i32, i32* %105, align 4, !tbaa !10
  %107 = icmp eq i32 %103, %106
  br i1 %107, label %98, label %108, !llvm.loop !15

108:                                              ; preds = %101
  %109 = call i32 (i8*, ...) @printf(i8* nonnull dereferenceable(1) getelementptr inbounds ([3 x i8], [3 x i8]* @.str.1, i64 0, i64 0), i32 %106)
  br label %112

110:                                              ; preds = %98
  %111 = call i32 (i8*, ...) @printf(i8* nonnull dereferenceable(1) getelementptr inbounds ([3 x i8], [3 x i8]* @.str, i64 0, i64 0))
  br label %112

112:                                              ; preds = %110, %108, %23
  call void @llvm.lifetime.end.p0i8(i64 1000, i8* nonnull %4) #6
  call void @llvm.lifetime.end.p0i8(i64 400, i8* nonnull %3) #6
  ret void

113:                                              ; preds = %77
  %114 = getelementptr inbounds [100 x i32], [100 x i32]* %1, i64 0, i64 %71
  store i32 %81, i32* %114, align 4, !tbaa !10
  store i32 %78, i32* %80, align 4, !tbaa !10
  br label %115

115:                                              ; preds = %113, %77
  %116 = phi i32 [ %81, %77 ], [ %78, %113 ]
  %117 = add i64 %70, -2
  %118 = icmp eq i64 %117, 0
  br i1 %118, label %83, label %67, !llvm.loop !16
}

; Function Attrs: argmemonly mustprogress nofree nosync nounwind willreturn
declare void @llvm.lifetime.start.p0i8(i64 immarg, i8* nocapture) #1

; Function Attrs: argmemonly mustprogress nofree nounwind willreturn writeonly
declare void @llvm.memset.p0i8.i64(i8* nocapture writeonly, i8, i64, i1 immarg) #2

declare i32 @gets(...) local_unnamed_addr #3

; Function Attrs: nofree nounwind
declare noundef i32 @printf(i8* nocapture noundef readonly, ...) local_unnamed_addr #4

; Function Attrs: argmemonly mustprogress nofree nosync nounwind willreturn
declare void @llvm.lifetime.end.p0i8(i64 immarg, i8* nocapture) #1

; Function Attrs: nofree nosync nounwind readnone speculatable willreturn
declare i32 @llvm.smax.i32(i32, i32) #5


!llvm.module.flags = !{!0, !1, !2, !3}
!llvm.ident = !{!4}

!0 = !{i32 1, !"wchar_size", i32 4}
!1 = !{i32 7, !"PIC Level", i32 2}
!2 = !{i32 7, !"PIE Level", i32 2}
!3 = !{i32 7, !"uwtable", i32 1}
!4 = !{!"clang version 13.0.0"}
!5 = !{!6, !6, i64 0}
!6 = !{!"omnipotent char", !7, i64 0}
!7 = !{!"Simple C/C++ TBAA"}
!8 = distinct !{!8, !9}
!9 = !{!"llvm.loop.mustprogress"}
!10 = !{!11, !11, i64 0}
!11 = !{!"int", !6, i64 0}
!12 = distinct !{!12, !9}
!13 = distinct !{!13, !9}
!14 = distinct !{!14, !9}
!15 = distinct !{!15, !9}
!16 = distinct !{!16, !9}
